target datalayout = "e-m:e-p270:32:32-p271:32:32-p272:64:64-i64:64-i128:128-f80:128-n8:16:32:64-S128"
target triple = "x86_64-pc-linux-gnu"

%struct.time_object = type { i64, %struct.vtm }
%struct.vtm = type { i64, i64, i64, i64, i64 }

; Function Attrs: inlinehint nounwind sspstrong uwtable
define internal i64 @w2v(i64 noundef %0) #4 {
  %2 = alloca i64, align 8
  store i64 %0, ptr %2, align 8, !tbaa !11
  %3 = load i64, ptr %2, align 8, !tbaa !11
  ret i64 %3
}

; Function Attrs: inlinehint nounwind sspstrong willreturn memory(none) uwtable
define internal zeroext i1 @RB_FIXNUM_P(i64 noundef %0) #5 {
  %2 = alloca i64, align 8
  store i64 %0, ptr %2, align 8, !tbaa !11
  %3 = load i64, ptr %2, align 8, !tbaa !11
  %4 = and i64 %3, 1
  %5 = icmp ne i64 %4, 0
  ret i1 %5
}

; Function Attrs: nounwind sspstrong uwtable
define internal void @time_mark(ptr noundef %0) #0 {
  %2 = alloca ptr, align 8
  %3 = alloca ptr, align 8
  store ptr %0, ptr %2, align 8, !tbaa !81
  call void @llvm.lifetime.start.p0(i64 8, ptr %3) #22
  %4 = load ptr, ptr %2, align 8, !tbaa !81
  store ptr %4, ptr %3, align 8, !tbaa !18
  %5 = load ptr, ptr %3, align 8, !tbaa !18
  %6 = getelementptr inbounds nuw %struct.time_object, ptr %5, i32 0, i32 0
  %7 = load i64, ptr %6, align 8, !tbaa !33
  %8 = call zeroext i1 @RB_FIXNUM_P(i64 noundef %7) #24
  br i1 %8, label %14, label %9

9:                                                ; preds = %1
  %10 = load ptr, ptr %3, align 8, !tbaa !18
  %11 = getelementptr inbounds nuw %struct.time_object, ptr %10, i32 0, i32 0
  %12 = load i64, ptr %11, align 8, !tbaa !33
  %13 = call i64 @w2v(i64 noundef %12)
  call void @rb_gc_mark(i64 noundef %13)
  br label %14

14:                                               ; preds = %9, %1
  %15 = load ptr, ptr %3, align 8, !tbaa !18
  %16 = getelementptr inbounds nuw %struct.time_object, ptr %15, i32 0, i32 1
  %17 = getelementptr inbounds nuw %struct.vtm, ptr %16, i32 0, i32 0
  %18 = load i64, ptr %17, align 8, !tbaa !52
  call void @rb_gc_mark(i64 noundef %18)
  %19 = load ptr, ptr %3, align 8, !tbaa !18
  %20 = getelementptr inbounds nuw %struct.time_object, ptr %19, i32 0, i32 1
  %21 = getelementptr inbounds nuw %struct.vtm, ptr %20, i32 0, i32 1
  %22 = load i64, ptr %21, align 8, !tbaa !35
  call void @rb_gc_mark(i64 noundef %22)
  %23 = load ptr, ptr %3, align 8, !tbaa !18
  %24 = getelementptr inbounds nuw %struct.time_object, ptr %23, i32 0, i32 1
  %25 = getelementptr inbounds nuw %struct.vtm, ptr %24, i32 0, i32 2
  %26 = load i64, ptr %25, align 8, !tbaa !45
  call void @rb_gc_mark(i64 noundef %26)
  %27 = load ptr, ptr %3, align 8, !tbaa !18
  %28 = getelementptr inbounds nuw %struct.time_object, ptr %27, i32 0, i32 1
  %29 = getelementptr inbounds nuw %struct.vtm, ptr %28, i32 0, i32 3
  %30 = load i64, ptr %29, align 8, !tbaa !38
  call void @rb_gc_mark(i64 noundef %30)
  call void @llvm.lifetime.end.p0(i64 8, ptr %3) #22
  ret void
}