; Function Attrs: nounwind sspstrong uwtable
define internal void @time_mark(ptr noundef readonly captures(none) %0) #1 {
  %2 = load i64, ptr %0, align 8, !tbaa !25
  %3 = and i64 %2, 1
  %.not = icmp eq i64 %3, 0
  br i1 %.not, label %4, label %5

4:                                                ; preds = %1
  tail call void @rb_gc_mark(i64 noundef %2) #21
  br label %5

5:                                                ; preds = %4, %1
  %6 = getelementptr inbounds nuw i8, ptr %0, i64 8
  %7 = load i64, ptr %6, align 8, !tbaa !37
  tail call void @rb_gc_mark(i64 noundef %7) #21
  %8 = getelementptr inbounds nuw i8, ptr %0, i64 16
  %9 = load i64, ptr %8, align 8, !tbaa !38
  tail call void @rb_gc_mark(i64 noundef %9) #21
  %10 = getelementptr inbounds nuw i8, ptr %0, i64 24
  %11 = load i64, ptr %10, align 8, !tbaa !39
  tail call void @rb_gc_mark(i64 noundef %11) #21
  %12 = getelementptr inbounds nuw i8, ptr %0, i64 32
  %13 = load i64, ptr %12, align 8, !tbaa !29
  tail call void @rb_gc_mark(i64 noundef %13) #21
  ret void
}